target datalayout = "e-m:e-p270:32:32-p271:32:32-p272:64:64-i64:64-i128:128-f80:128-n8:16:32:64-S128"
target triple = "x86_64-pc-linux-gnu"

%"union.icu_77::Transliterator::Token" = type { ptr }

@_ZL8registry = internal global ptr null, align 8

; Function Attrs: mustprogress uwtable
define void @_ZN6icu_7714Transliterator16_registerFactoryERKNS_13UnicodeStringEPFPS0_S3_NS0_5TokenEES5_(ptr noundef nonnull align 8 dereferenceable(64) %0, ptr noundef %1, ptr %2) #1 align 2 {
  %4 = alloca %"union.icu_77::Transliterator::Token", align 8
  %5 = alloca ptr, align 8
  %6 = alloca ptr, align 8
  %7 = alloca i32, align 4
  %8 = alloca %"union.icu_77::Transliterator::Token", align 8
  %9 = getelementptr inbounds nuw %"union.icu_77::Transliterator::Token", ptr %4, i32 0, i32 0
  store ptr %2, ptr %9, align 8
  store ptr %0, ptr %5, align 8, !tbaa !25
  store ptr %1, ptr %6, align 8, !tbaa !22
  call void @llvm.lifetime.start.p0(i64 4, ptr %7) #15
  store i32 0, ptr %7, align 4, !tbaa !15
  %10 = load ptr, ptr @_ZL8registry, align 8, !tbaa !86
  %11 = load ptr, ptr %5, align 8, !tbaa !25
  %12 = load ptr, ptr %6, align 8, !tbaa !22
  call void @llvm.memcpy.p0.p0.i64(ptr align 8 %8, ptr align 8 %4, i64 8, i1 false), !tbaa.struct !132
  %13 = getelementptr inbounds nuw %"union.icu_77::Transliterator::Token", ptr %8, i32 0, i32 0
  %14 = load ptr, ptr %13, align 8
  call void @_ZN6icu_7722TransliteratorRegistry3putERKNS_13UnicodeStringEPFPNS_14TransliteratorES3_NS4_5TokenEES6_aR10UErrorCode(ptr noundef nonnull align 8 dereferenceable(312) %10, ptr noundef nonnull align 8 dereferenceable(64) %11, ptr noundef %12, ptr %14, i8 noundef signext 1, ptr noundef nonnull align 4 dereferenceable(4) %7)
  call void @llvm.lifetime.end.p0(i64 4, ptr %7) #15
  ret void
}