; Function Attrs: mustprogress uwtable
define void @_ZN6icu_7714Transliterator16_registerFactoryERKNS_13UnicodeStringEPFPS0_S3_NS0_5TokenEES5_(ptr noundef nonnull align 8 dereferenceable(64) %0, ptr noundef %1, ptr %2) local_unnamed_addr #1 align 2 {
  %4 = alloca i32, align 4
  call void @llvm.lifetime.start.p0(i64 4, ptr nonnull %4) #21
  store i32 0, ptr %4, align 4, !tbaa !13
  %5 = load ptr, ptr @_ZL8registry, align 8, !tbaa !49
  call void @_ZN6icu_7722TransliteratorRegistry3putERKNS_13UnicodeStringEPFPNS_14TransliteratorES3_NS4_5TokenEES6_aR10UErrorCode(ptr noundef nonnull align 8 dereferenceable(312) %5, ptr noundef nonnull align 8 dereferenceable(64) %0, ptr noundef %1, ptr %2, i8 noundef signext 1, ptr noundef nonnull align 4 dereferenceable(4) %4)
  call void @llvm.lifetime.end.p0(i64 4, ptr nonnull %4) #21
  ret void
}